target datalayout = "e-m:e-p270:32:32-p271:32:32-p272:64:64-i64:64-i128:128-f80:128-n8:16:32:64-S128"
target triple = "x86_64-pc-linux-gnu"

%struct.ssl_common_options = type { ptr, ptr }
%struct.decode_as_s = type { ptr, ptr, i32, i32, ptr, ptr, ptr, ptr, ptr, ptr, ptr }
%struct.reassembly_table = type { ptr, ptr, ptr, ptr, ptr }
%struct.reassembly_table_functions = type { ptr, ptr, ptr, ptr, ptr, ptr }

@ssl_options = internal global %struct.ssl_common_options zeroinitializer, align 8
@tls_handle = internal global ptr null, align 8
@proto_tls = internal global i32 0, align 4
@proto_register_tls.ssl_da = internal global %struct.decode_as_s { ptr @.str.906, ptr @.str.907, i32 3, i32 2, ptr @proto_register_tls.ssl_da_values, ptr @.str.908, ptr @.str.909, ptr @decode_as_default_populate_list, ptr @decode_as_default_reset, ptr @decode_as_default_change, ptr null }, align 8
@.str.906 = private unnamed_addr constant [4 x i8] c"tls\00", align 1
@.str.907 = private unnamed_addr constant [9 x i8] c"tls.port\00", align 1
@.str.910 = private unnamed_addr constant [25 x i8] c"Transport Layer Security\00", align 1
@.str.911 = private unnamed_addr constant [4 x i8] c"TLS\00", align 1
@.str.912 = private unnamed_addr constant [9 x i8] c"TLS Port\00", align 1
@ssl_associations = internal global ptr null, align 8
@.str.913 = private unnamed_addr constant [9 x i8] c"ssl.port\00", align 1
@.str.914 = private unnamed_addr constant [4 x i8] c"ssl\00", align 1
@.str.930 = private unnamed_addr constant [12 x i8] c"TLS Decrypt\00", align 1
@.str.931 = private unnamed_addr constant [9 x i8] c"ssl_keys\00", align 1
@tlskeylist_uats = internal global ptr null, align 8
@ntlsdecrypt = internal global i32 0, align 4
@ssldecrypt_uat = internal global ptr null, align 8
@.str.932 = private unnamed_addr constant [10 x i8] c"key_table\00", align 1
@.str.933 = private unnamed_addr constant [14 x i8] c"RSA keys list\00", align 1
@.str.934 = private unnamed_addr constant [39 x i8] c"A table of RSA keys for TLS decryption\00", align 1
@.str.935 = private unnamed_addr constant [10 x i8] c"keys_list\00", align 1
@.str.936 = private unnamed_addr constant [27 x i8] c"RSA keys list (deprecated)\00", align 1
@.str.937 = private unnamed_addr constant [113 x i8] c"Semicolon-separated list of private RSA keys used for TLS decryption. Used by versions of Wireshark prior to 1.6\00", align 1
@ssl_keys_list = internal global ptr null, align 8
@.str.938 = private unnamed_addr constant [11 x i8] c"debug_file\00", align 1
@.str.939 = private unnamed_addr constant [15 x i8] c"TLS debug file\00", align 1
@.str.940 = private unnamed_addr constant [116 x i8] c"Redirect TLS debug to the file specified. Leave empty to disable debugging or use \22-\22 to redirect output to stderr.\00", align 1
@ssl_debug_file_name = internal global ptr null, align 8
@.str.941 = private unnamed_addr constant [22 x i8] c"desegment_ssl_records\00", align 1
@.str.942 = private unnamed_addr constant [54 x i8] c"Reassemble TLS records spanning multiple TCP segments\00", align 1
@.str.943 = private unnamed_addr constant [207 x i8] c"Whether the TLS dissector should reassemble TLS records spanning multiple TCP segments. To use this option, you must also enable \22Allow subdissectors to reassemble TCP streams\22 in the TCP protocol settings.\00", align 1
@tls_desegment = internal global i8 1, align 1
@.str.944 = private unnamed_addr constant [31 x i8] c"desegment_ssl_application_data\00", align 1
@.str.945 = private unnamed_addr constant [62 x i8] c"Reassemble TLS Application Data spanning multiple TLS records\00", align 1
@.str.946 = private unnamed_addr constant [97 x i8] c"Whether the TLS dissector should reassemble TLS Application Data spanning multiple TLS records. \00", align 1
@tls_desegment_app_data = internal global i8 1, align 1
@.str.947 = private unnamed_addr constant [22 x i8] c"ignore_ssl_mac_failed\00", align 1
@.str.948 = private unnamed_addr constant [55 x i8] c"Message Authentication Code (MAC), ignore \22mac failed\22\00", align 1
@.str.949 = private unnamed_addr constant [113 x i8] c"For troubleshooting ignore the mac check result and decrypt also if the Message Authentication Code (MAC) fails.\00", align 1
@tls_ignore_mac_failed = internal global i8 0, align 1
@tls_try_heuristic_first = internal global ptr null, align 8
@.str.950 = private unnamed_addr constant [4 x i8] c"443\00", align 1
@.str.951 = private unnamed_addr constant [20 x i8] c"try_heuristic_first\00", align 1
@.str.952 = private unnamed_addr constant [44 x i8] c"Try heuristic sub-dissectors first on ports\00", align 1
@.str.953 = private unnamed_addr constant [210 x i8] c"Try to decode a packet using an heuristic sub-dissector before using a sub-dissector registered to a specific port for these ports, e.g. the overloaded port 443. An ALPN for a connection always has precedence.\00", align 1
@.str.954 = private unnamed_addr constant [9 x i8] c"TLS data\00", align 1
@ssl_heur_subdissector_list = internal global ptr null, align 8
@.str.955 = private unnamed_addr constant [9 x i8] c"tls.alpn\00", align 1
@.str.956 = private unnamed_addr constant [67 x i8] c"SSL/TLS Application-Layer Protocol Negotiation (ALPN) Protocol IDs\00", align 1
@.str.957 = private unnamed_addr constant [16 x i8] c"tls13-handshake\00", align 1
@.str.958 = private unnamed_addr constant [14 x i8] c"tls-echconfig\00", align 1
@ssl_reassembly_table = internal global %struct.reassembly_table zeroinitializer, align 8
@tcp_reassembly_table_functions = external constant %struct.reassembly_table_functions, align 8
@tls_hs_reassembly_table = internal global %struct.reassembly_table zeroinitializer, align 8
@.str.959 = private unnamed_addr constant [11 x i8] c"tls_follow\00", align 1
@tls_follow_tap = internal global i32 -1, align 4
@.str.960 = private unnamed_addr constant [42 x i8] c"proto_register_ssl: registered tap %s:%d\0A\00", align 1

; Function Attrs: null_pointer_is_valid sspstrong uwtable
define hidden void @proto_register_tls() #0 {
  %1 = alloca ptr, align 8
  %2 = alloca ptr, align 8
  call void @llvm.lifetime.start.p0(i64 8, ptr %1) #18
  %3 = call i32 @proto_register_protocol(ptr noundef @.str.910, ptr noundef @.str.911, ptr noundef @.str.906)
  store i32 %3, ptr @proto_tls, align 4
  %4 = load i32, ptr @proto_tls, align 4
  %5 = call ptr @register_dissector_table(ptr noundef @.str.907, ptr noundef @.str.912, i32 noundef %4, i32 noundef 5, i32 noundef 1)
  store ptr %5, ptr @ssl_associations, align 8
  %6 = load ptr, ptr @ssl_associations, align 8
  call void @register_dissector_table_alias(ptr noundef %6, ptr noundef @.str.913)
  %7 = load i32, ptr @proto_tls, align 4
  call void @proto_register_field_array(i32 noundef %7, ptr noundef @proto_register_tls.hf, i32 noundef 343)
  %8 = load i32, ptr @proto_tls, align 4
  call void @proto_register_alias(i32 noundef %8, ptr noundef @.str.914)
  call void @proto_register_subtree_array(ptr noundef @proto_register_tls.ett, i32 noundef 50)
  %9 = load i32, ptr @proto_tls, align 4
  %10 = call ptr @expert_register_protocol(i32 noundef %9)
  store ptr %10, ptr %1, align 8
  %11 = load ptr, ptr %1, align 8
  call void @expert_register_field_array(ptr noundef %11, ptr noundef @proto_register_tls.ei, i32 noundef 19)
  call void @llvm.lifetime.start.p0(i64 8, ptr %2) #18
  %12 = load i32, ptr @proto_tls, align 4
  %13 = call ptr @prefs_register_protocol(i32 noundef %12, ptr noundef @proto_reg_handoff_ssl)
  store ptr %13, ptr %2, align 8
  %14 = call ptr @uat_new(ptr noundef @.str.930, i64 noundef 40, ptr noundef @.str.931, i1 noundef zeroext true, ptr noundef @tlskeylist_uats, ptr noundef @ntlsdecrypt, i32 noundef 1, ptr noundef null, ptr noundef @ssldecrypt_copy_cb, ptr noundef null, ptr noundef @ssldecrypt_free_cb, ptr noundef @ssl_parse_uat, ptr noundef @ssl_reset_uat, ptr noundef @proto_register_tls.sslkeylist_uats_flds)
  store ptr %14, ptr @ssldecrypt_uat, align 8
  %15 = load ptr, ptr %2, align 8
  %16 = load ptr, ptr @ssldecrypt_uat, align 8
  call void @prefs_register_uat_preference(ptr noundef %15, ptr noundef @.str.932, ptr noundef @.str.933, ptr noundef @.str.934, ptr noundef %16)
  %17 = load ptr, ptr %2, align 8
  call void @prefs_register_string_preference(ptr noundef %17, ptr noundef @.str.935, ptr noundef @.str.936, ptr noundef @.str.937, ptr noundef @ssl_keys_list)
  %18 = load ptr, ptr %2, align 8
  call void @prefs_register_filename_preference(ptr noundef %18, ptr noundef @.str.938, ptr noundef @.str.939, ptr noundef @.str.940, ptr noundef @ssl_debug_file_name, i1 noundef zeroext true)
  %19 = load ptr, ptr %2, align 8
  call void @prefs_register_bool_preference(ptr noundef %19, ptr noundef @.str.941, ptr noundef @.str.942, ptr noundef @.str.943, ptr noundef @tls_desegment)
  %20 = load ptr, ptr %2, align 8
  call void @prefs_register_bool_preference(ptr noundef %20, ptr noundef @.str.944, ptr noundef @.str.945, ptr noundef @.str.946, ptr noundef @tls_desegment_app_data)
  %21 = load ptr, ptr %2, align 8
  call void @prefs_register_bool_preference(ptr noundef %21, ptr noundef @.str.947, ptr noundef @.str.948, ptr noundef @.str.949, ptr noundef @tls_ignore_mac_failed)
  %22 = call ptr @wmem_epan_scope()
  %23 = call i32 @range_convert_str(ptr noundef %22, ptr noundef @tls_try_heuristic_first, ptr noundef @.str.950, i32 noundef 65535)
  %24 = load ptr, ptr %2, align 8
  call void @prefs_register_range_preference(ptr noundef %24, ptr noundef @.str.951, ptr noundef @.str.952, ptr noundef @.str.953, ptr noundef @tls_try_heuristic_first, i32 noundef 65535)
  %25 = load ptr, ptr %2, align 8
  call void @ssl_common_register_options(ptr noundef %25, ptr noundef @ssl_options, i1 noundef zeroext false)
  call void @llvm.lifetime.end.p0(i64 8, ptr %2) #18
  %26 = load i32, ptr @proto_tls, align 4
  %27 = call ptr @register_heur_dissector_list_with_description(ptr noundef @.str.906, ptr noundef @.str.954, i32 noundef %26)
  store ptr %27, ptr @ssl_heur_subdissector_list, align 8
  %28 = load i32, ptr @proto_tls, align 4
  call void @ssl_common_register_ssl_alpn_dissector_table(ptr noundef @.str.955, ptr noundef @.str.956, i32 noundef %28)
  %29 = load i32, ptr @proto_tls, align 4
  %30 = call ptr @register_dissector(ptr noundef @.str.906, ptr noundef @dissect_ssl, i32 noundef %29)
  store ptr %30, ptr @tls_handle, align 8
  %31 = load i32, ptr @proto_tls, align 4
  %32 = call ptr @register_dissector(ptr noundef @.str.957, ptr noundef @dissect_tls13_handshake, i32 noundef %31)
  %33 = load i32, ptr @proto_tls, align 4
  %34 = call ptr @register_dissector(ptr noundef @.str.958, ptr noundef @dissect_tls_echconfig, i32 noundef %33)
  call void @register_init_routine(ptr noundef @ssl_init)
  call void @register_cleanup_routine(ptr noundef @ssl_cleanup)
  call void @reassembly_table_register(ptr noundef @ssl_reassembly_table, ptr noundef @tcp_reassembly_table_functions)
  call void @reassembly_table_register(ptr noundef @tls_hs_reassembly_table, ptr noundef @tls_hs_reassembly_table_functions)
  call void @register_decode_as(ptr noundef @proto_register_tls.ssl_da)
  %35 = call i32 @register_tap(ptr noundef @.str.959)
  store i32 %35, ptr @tls_follow_tap, align 4
  %36 = load i32, ptr @tls_follow_tap, align 4
  call void (ptr, ...) @ssl_debug_printf(ptr noundef @.str.960, ptr noundef @.str.959, i32 noundef %36)
  %37 = load i32, ptr @proto_tls, align 4
  call void @register_follow_stream(i32 noundef %37, ptr noundef @.str.959, ptr noundef @tcp_follow_conv_filter, ptr noundef @tcp_follow_index_filter, ptr noundef @tcp_follow_address_filter, ptr noundef @tcp_port_to_display, ptr noundef @ssl_follow_tap_listener, ptr noundef @get_tcp_stream_count, ptr noundef null)
  call void @secrets_register_type(i32 noundef 1414288203, ptr noundef @tls_secrets_block_callback)
  call void @llvm.lifetime.end.p0(i64 8, ptr %1) #18
  ret void
}