; Function Attrs: null_pointer_is_valid sspstrong uwtable
define hidden void @proto_register_tls() local_unnamed_addr #0 {
  %1 = tail call i32 @proto_register_protocol(ptr noundef nonnull @.str.910, ptr noundef nonnull @.str.911, ptr noundef nonnull @.str.906)
  store i32 %1, ptr @proto_tls, align 4
  %2 = tail call ptr @register_dissector_table(ptr noundef nonnull @.str.907, ptr noundef nonnull @.str.912, i32 noundef %1, i32 noundef 5, i32 noundef 1)
  store ptr %2, ptr @ssl_associations, align 8
  tail call void @register_dissector_table_alias(ptr noundef %2, ptr noundef nonnull @.str.913)
  %3 = load i32, ptr @proto_tls, align 4
  tail call void @proto_register_field_array(i32 noundef %3, ptr noundef nonnull @proto_register_tls.hf, i32 noundef 343)
  %4 = load i32, ptr @proto_tls, align 4
  tail call void @proto_register_alias(i32 noundef %4, ptr noundef nonnull @.str.914)
  tail call void @proto_register_subtree_array(ptr noundef nonnull @proto_register_tls.ett, i32 noundef 50)
  %5 = load i32, ptr @proto_tls, align 4
  %6 = tail call ptr @expert_register_protocol(i32 noundef %5)
  tail call void @expert_register_field_array(ptr noundef %6, ptr noundef nonnull @proto_register_tls.ei, i32 noundef 19)
  %7 = load i32, ptr @proto_tls, align 4
  %8 = tail call ptr @prefs_register_protocol(i32 noundef %7, ptr noundef nonnull @proto_reg_handoff_ssl)
  %9 = tail call ptr @uat_new(ptr noundef nonnull @.str.930, i64 noundef 40, ptr noundef nonnull @.str.931, i1 noundef zeroext true, ptr noundef nonnull @tlskeylist_uats, ptr noundef nonnull @ntlsdecrypt, i32 noundef 1, ptr noundef null, ptr noundef nonnull @ssldecrypt_copy_cb, ptr noundef null, ptr noundef nonnull @ssldecrypt_free_cb, ptr noundef nonnull @ssl_parse_uat, ptr noundef nonnull @ssl_reset_uat, ptr noundef nonnull @proto_register_tls.sslkeylist_uats_flds)
  store ptr %9, ptr @ssldecrypt_uat, align 8
  tail call void @prefs_register_uat_preference(ptr noundef %8, ptr noundef nonnull @.str.932, ptr noundef nonnull @.str.933, ptr noundef nonnull @.str.934, ptr noundef %9)
  tail call void @prefs_register_string_preference(ptr noundef %8, ptr noundef nonnull @.str.935, ptr noundef nonnull @.str.936, ptr noundef nonnull @.str.937, ptr noundef nonnull @ssl_keys_list)
  tail call void @prefs_register_filename_preference(ptr noundef %8, ptr noundef nonnull @.str.938, ptr noundef nonnull @.str.939, ptr noundef nonnull @.str.940, ptr noundef nonnull @ssl_debug_file_name, i1 noundef zeroext true)
  tail call void @prefs_register_bool_preference(ptr noundef %8, ptr noundef nonnull @.str.941, ptr noundef nonnull @.str.942, ptr noundef nonnull @.str.943, ptr noundef nonnull @tls_desegment)
  tail call void @prefs_register_bool_preference(ptr noundef %8, ptr noundef nonnull @.str.944, ptr noundef nonnull @.str.945, ptr noundef nonnull @.str.946, ptr noundef nonnull @tls_desegment_app_data)
  tail call void @prefs_register_bool_preference(ptr noundef %8, ptr noundef nonnull @.str.947, ptr noundef nonnull @.str.948, ptr noundef nonnull @.str.949, ptr noundef nonnull @tls_ignore_mac_failed)
  %10 = tail call ptr @wmem_epan_scope()
  %11 = tail call i32 @range_convert_str(ptr noundef %10, ptr noundef nonnull @tls_try_heuristic_first, ptr noundef nonnull @.str.950, i32 noundef 65535)
  tail call void @prefs_register_range_preference(ptr noundef %8, ptr noundef nonnull @.str.951, ptr noundef nonnull @.str.952, ptr noundef nonnull @.str.953, ptr noundef nonnull @tls_try_heuristic_first, i32 noundef 65535)
  tail call void @ssl_common_register_options(ptr noundef %8, ptr noundef nonnull @ssl_options, i1 noundef zeroext false)
  %12 = load i32, ptr @proto_tls, align 4
  %13 = tail call ptr @register_heur_dissector_list_with_description(ptr noundef nonnull @.str.906, ptr noundef nonnull @.str.954, i32 noundef %12)
  store ptr %13, ptr @ssl_heur_subdissector_list, align 8
  %14 = load i32, ptr @proto_tls, align 4
  tail call void @ssl_common_register_ssl_alpn_dissector_table(ptr noundef nonnull @.str.955, ptr noundef nonnull @.str.956, i32 noundef %14)
  %15 = load i32, ptr @proto_tls, align 4
  %16 = tail call ptr @register_dissector(ptr noundef nonnull @.str.906, ptr noundef nonnull @dissect_ssl, i32 noundef %15)
  store ptr %16, ptr @tls_handle, align 8
  %17 = load i32, ptr @proto_tls, align 4
  %18 = tail call ptr @register_dissector(ptr noundef nonnull @.str.957, ptr noundef nonnull @dissect_tls13_handshake, i32 noundef %17)
  %19 = load i32, ptr @proto_tls, align 4
  %20 = tail call ptr @register_dissector(ptr noundef nonnull @.str.958, ptr noundef nonnull @dissect_tls_echconfig, i32 noundef %19)
  tail call void @register_init_routine(ptr noundef nonnull @ssl_init)
  tail call void @register_cleanup_routine(ptr noundef nonnull @ssl_cleanup)
  tail call void @reassembly_table_register(ptr noundef nonnull @ssl_reassembly_table, ptr noundef nonnull @tcp_reassembly_table_functions)
  tail call void @reassembly_table_register(ptr noundef nonnull @tls_hs_reassembly_table, ptr noundef nonnull @tls_hs_reassembly_table_functions)
  tail call void @register_decode_as(ptr noundef nonnull @proto_register_tls.ssl_da)
  %21 = tail call i32 @register_tap(ptr noundef nonnull @.str.959)
  store i32 %21, ptr @tls_follow_tap, align 4
  tail call void (ptr, ...) @ssl_debug_printf(ptr noundef nonnull @.str.960, ptr noundef nonnull @.str.959, i32 noundef %21)
  %22 = load i32, ptr @proto_tls, align 4
  tail call void @register_follow_stream(i32 noundef %22, ptr noundef nonnull @.str.959, ptr noundef nonnull @tcp_follow_conv_filter, ptr noundef nonnull @tcp_follow_index_filter, ptr noundef nonnull @tcp_follow_address_filter, ptr noundef nonnull @tcp_port_to_display, ptr noundef nonnull @ssl_follow_tap_listener, ptr noundef nonnull @get_tcp_stream_count, ptr noundef null)
  tail call void @secrets_register_type(i32 noundef 1414288203, ptr noundef nonnull @tls_secrets_block_callback)
  ret void
}